; Function Attrs: mustprogress null_pointer_is_valid sspstrong uwtable
define void @_ZN22SupportedProtocolsItemC2EP9_protocolPKcS3_6ftenumS3_PS_(ptr noundef align 8 dereferenceable_or_null(128) initializes((0, 48)) %0, ptr noundef %1, ptr noundef %2, ptr noundef %3, i32 noundef %4, ptr noundef %5, ptr noundef %6) unnamed_addr #0 align 2 personality ptr @__gxx_personality_v0 {
  %8 = alloca %class.QString, align 8
  %9 = alloca %class.QString, align 8
  %10 = alloca %class.QString, align 8
  %11 = getelementptr inbounds nuw i8, ptr %0, i64 8
  store ptr %6, ptr %11, align 8
  %12 = getelementptr inbounds nuw i8, ptr %0, i64 16
  tail call void @llvm.memset.p0.i64(ptr noundef nonnull align 8 dereferenceable(24) dereferenceable_or_null(24) %12, i8 0, i64 24, i1 false)
  store ptr getelementptr inbounds nuw inrange(-16, 16) (i8, ptr @_ZTV22SupportedProtocolsItem, i64 16), ptr %0, align 8
  %13 = getelementptr inbounds nuw i8, ptr %0, i64 40
  store ptr %1, ptr %13, align 8
  %14 = getelementptr inbounds nuw i8, ptr %0, i64 48
  call void @llvm.lifetime.start.p0(i64 24, ptr nonnull %10) #22
  %.not.i.i = icmp eq ptr %2, null
  br i1 %.not.i.i, label %_ZN7QStringD2Ev.exit.i, label %.split.i.i

.split.i.i:                                       ; preds = %7
  %15 = tail call noundef i64 @strlen(ptr noundef nonnull dereferenceable(1) %2) #22
  br label %_ZN7QStringD2Ev.exit.i

_ZN7QStringD2Ev.exit.i:                           ; preds = %.split.i.i, %7
  %.sink5.i.i = phi i64 [ %15, %.split.i.i ], [ 0, %7 ]
  invoke void @_ZN7QString8fromUtf8E14QByteArrayView(ptr dead_on_unwind nonnull writable sret(%class.QString) align 8 %10, i64 %.sink5.i.i, ptr %2)
          to label %16 unwind label %45

16:                                               ; preds = %_ZN7QStringD2Ev.exit.i
  %17 = load ptr, ptr %10, align 8
  store ptr %17, ptr %14, align 8
  %18 = getelementptr inbounds nuw i8, ptr %0, i64 56
  %19 = getelementptr inbounds nuw i8, ptr %10, i64 8
  %20 = load ptr, ptr %19, align 8
  store ptr %20, ptr %18, align 8
  %21 = getelementptr inbounds nuw i8, ptr %0, i64 64
  %22 = getelementptr inbounds nuw i8, ptr %10, i64 16
  %23 = load i64, ptr %22, align 8
  store i64 %23, ptr %21, align 8
  call void @llvm.lifetime.end.p0(i64 24, ptr nonnull %10) #22
  %24 = getelementptr inbounds nuw i8, ptr %0, i64 72
  call void @llvm.lifetime.start.p0(i64 24, ptr nonnull %9) #22
  %.not.i.i12 = icmp eq ptr %3, null
  br i1 %.not.i.i12, label %_ZN7QStringD2Ev.exit.i14, label %.split.i.i13

.split.i.i13:                                     ; preds = %16
  %25 = call noundef i64 @strlen(ptr noundef nonnull dereferenceable(1) %3) #22
  br label %_ZN7QStringD2Ev.exit.i14

_ZN7QStringD2Ev.exit.i14:                         ; preds = %.split.i.i13, %16
  %.sink5.i.i15 = phi i64 [ %25, %.split.i.i13 ], [ 0, %16 ]
  invoke void @_ZN7QString8fromUtf8E14QByteArrayView(ptr dead_on_unwind nonnull writable sret(%class.QString) align 8 %9, i64 %.sink5.i.i15, ptr %3)
          to label %26 unwind label %47

26:                                               ; preds = %_ZN7QStringD2Ev.exit.i14
  %27 = load ptr, ptr %9, align 8
  store ptr %27, ptr %24, align 8
  %28 = getelementptr inbounds nuw i8, ptr %0, i64 80
  %29 = getelementptr inbounds nuw i8, ptr %9, i64 8
  %30 = load ptr, ptr %29, align 8
  store ptr %30, ptr %28, align 8
  %31 = getelementptr inbounds nuw i8, ptr %0, i64 88
  %32 = getelementptr inbounds nuw i8, ptr %9, i64 16
  %33 = load i64, ptr %32, align 8
  store i64 %33, ptr %31, align 8
  call void @llvm.lifetime.end.p0(i64 24, ptr nonnull %9) #22
  %34 = getelementptr inbounds nuw i8, ptr %0, i64 96
  store i32 %4, ptr %34, align 8
  call void @llvm.lifetime.start.p0(i64 24, ptr nonnull %8) #22
  %.not.i.i17 = icmp eq ptr %5, null
  br i1 %.not.i.i17, label %_ZN7QStringD2Ev.exit.i19, label %.split.i.i18

.split.i.i18:                                     ; preds = %26
  %35 = call noundef i64 @strlen(ptr noundef nonnull dereferenceable(1) %5) #22
  br label %_ZN7QStringD2Ev.exit.i19

_ZN7QStringD2Ev.exit.i19:                         ; preds = %.split.i.i18, %26
  %.sink5.i.i20 = phi i64 [ %35, %.split.i.i18 ], [ 0, %26 ]
  invoke void @_ZN7QString8fromUtf8E14QByteArrayView(ptr dead_on_unwind nonnull writable sret(%class.QString) align 8 %8, i64 %.sink5.i.i20, ptr %5)
          to label %36 unwind label %49

36:                                               ; preds = %_ZN7QStringD2Ev.exit.i19
  %37 = getelementptr inbounds nuw i8, ptr %0, i64 104
  %38 = load ptr, ptr %8, align 8
  store ptr %38, ptr %37, align 8
  %39 = getelementptr inbounds nuw i8, ptr %0, i64 112
  %40 = getelementptr inbounds nuw i8, ptr %8, i64 8
  %41 = load ptr, ptr %40, align 8
  store ptr %41, ptr %39, align 8
  %42 = getelementptr inbounds nuw i8, ptr %0, i64 120
  %43 = getelementptr inbounds nuw i8, ptr %8, i64 16
  %44 = load i64, ptr %43, align 8
  store i64 %44, ptr %42, align 8
  call void @llvm.lifetime.end.p0(i64 24, ptr nonnull %8) #22
  ret void

45:                                               ; preds = %_ZN7QStringD2Ev.exit.i
  %46 = landingpad { ptr, i32 }
          cleanup
  br label %52

47:                                               ; preds = %_ZN7QStringD2Ev.exit.i14
  %48 = landingpad { ptr, i32 }
          cleanup
  br label %51

49:                                               ; preds = %_ZN7QStringD2Ev.exit.i19
  %50 = landingpad { ptr, i32 }
          cleanup
  call void @_ZN7QStringD2Ev(ptr noundef nonnull align 8 dereferenceable_or_null(24) %24) #22
  br label %51

51:                                               ; preds = %49, %47
  %.pn = phi { ptr, i32 } [ %50, %49 ], [ %48, %47 ]
  call void @_ZN7QStringD2Ev(ptr noundef nonnull align 8 dereferenceable_or_null(24) %14) #22
  br label %52

52:                                               ; preds = %51, %45
  %.pn.pn = phi { ptr, i32 } [ %.pn, %51 ], [ %46, %45 ]
  call void @_ZN19ModelHelperTreeItemI22SupportedProtocolsItemED2Ev(ptr noundef align 8 dereferenceable_or_null(40) %0) #22
  resume { ptr, i32 } %.pn.pn
}